; Function Attrs: nounwind sspstrong uwtable
define internal noundef i64 @strscan_reset(i64 noundef returned %0) #0 {
  %2 = tail call ptr @rb_check_typeddata(i64 noundef %0, ptr noundef nonnull @strscanner_type) #12
  %3 = getelementptr inbounds nuw i8, ptr %2, i64 8
  %4 = load i64, ptr %3, align 8, !tbaa !23
  %5 = icmp eq i64 %4, 4
  br i1 %5, label %6, label %8

6:                                                ; preds = %1
  %7 = load i64, ptr @rb_eArgError, align 8, !tbaa !10
  tail call void (i64, ptr, ...) @rb_raise(i64 noundef %7, ptr noundef nonnull @.str.66) #14
  unreachable

8:                                                ; preds = %1
  %9 = getelementptr inbounds nuw i8, ptr %2, i64 24
  store i64 0, ptr %9, align 8, !tbaa !29
  %10 = load i64, ptr %2, align 8, !tbaa !18
  %11 = and i64 %10, -2
  store i64 %11, ptr %2, align 8, !tbaa !18
  ret i64 %0
}